EXPORTS 
	?$TSS0@?1??initialize@socket_initializer@sockpp@@SAXXZ@4HA 	 DATA
	??_R0?AV_Generic_error_category@std@@@8 	 DATA
	??_R0?AV_System_error@std@@@8 	 DATA
	??_R0?AV_System_error_category@std@@@8 	 DATA
	??_R0?AVacceptor@sockpp@@@8 	 DATA
	??_R0?AVbad_alloc@std@@@8 	 DATA
	??_R0?AVbad_array_new_length@std@@@8 	 DATA
	??_R0?AVerror_category@std@@@8 	 DATA
	??_R0?AVexception@std@@@8 	 DATA
	??_R0?AVinet6_address@sockpp@@@8 	 DATA
	??_R0?AVinet_address@sockpp@@@8 	 DATA
	??_R0?AVlength_error@std@@@8 	 DATA
	??_R0?AVlogic_error@std@@@8 	 DATA
	??_R0?AVruntime_error@std@@@8 	 DATA
	??_R0?AVsock_address@sockpp@@@8 	 DATA
	??_R0?AVsock_address_any@sockpp@@@8 	 DATA
	??_R0?AVsocket@sockpp@@@8 	 DATA
	??_R0?AVstream_socket@sockpp@@@8 	 DATA
	??_R0?AVsystem_error@std@@@8 	 DATA
	?_Static@?1???$_Immortalize_memcpy_image@V_Generic_error_category@std@@@std@@YAAEBV_Generic_error_category@1@XZ@4U?$_Constexpr_immortalize_impl@V_Generic_error_category@std@@@1@A 	 DATA
	?_Static@?1???$_Immortalize_memcpy_image@V_System_error_category@std@@@std@@YAAEBV_System_error_category@1@XZ@4U?$_Constexpr_immortalize_impl@V_System_error_category@std@@@1@A 	 DATA
	?sock_init@?1??initialize@socket_initializer@sockpp@@SAXXZ@4V23@A 	 DATA
	??$?0$$V@?$_Compressed_pair@V?$allocator@D@std@@V?$_String_val@U?$_Simple_types@D@std@@@2@$00@std@@QEAA@U_Zero_then_variadic_args_t@1@@Z
	??$?0$$V@?$_Compressed_pair@V?$allocator@U_WSABUF@@@std@@V?$_Vector_val@U?$_Simple_types@U_WSABUF@@@std@@@2@$00@std@@QEAA@U_Zero_then_variadic_args_t@1@@Z
	??$?0AEAV?$allocator@D@std@@$$V@?$_Compressed_pair@V?$allocator@D@std@@V?$_String_val@U?$_Simple_types@D@std@@@2@$00@std@@QEAA@U_One_then_variadic_args_t@1@AEAV?$allocator@D@1@@Z
	??$?0AEBV?$allocator@D@std@@$$V@?$_Compressed_pair@V?$allocator@D@std@@V?$_String_val@U?$_Simple_types@D@std@@@2@$00@std@@QEAA@U_One_then_variadic_args_t@1@AEBV?$allocator@D@1@@Z
	??$?0D@?$allocator@U_Container_proxy@std@@@std@@QEAA@AEBV?$allocator@D@1@@Z
	??$?0PEAD$0A@@?$basic_string@DU?$char_traits@D@std@@V?$allocator@D@2@@std@@QEAA@PEAD0AEBV?$allocator@D@1@@Z
	??$?0U_WSABUF@@@?$allocator@U_Container_proxy@std@@@std@@QEAA@AEBV?$allocator@U_WSABUF@@@1@@Z
	??$?0V?$allocator@D@std@@$$V@?$_Compressed_pair@V?$allocator@D@std@@V?$_String_val@U?$_Simple_types@D@std@@@2@$00@std@@QEAA@U_One_then_variadic_args_t@1@$$QEAV?$allocator@D@1@@Z
	??$?0Vsocket@sockpp@@$0A@@?$tuple@Vsocket@sockpp@@@std@@QEAA@XZ
	??$?0Vsocket@sockpp@@$0A@@?$tuple@Vsocket@sockpp@@V12@@std@@QEAA@XZ
	??$?0W4errc@std@@$0A@@error_condition@std@@QEAA@W4errc@1@@Z
	??$?0_J$0A@@?$duration@_JU?$ratio@$00$00@std@@@chrono@std@@QEAA@AEB_J@Z
	??$?0_J$0A@@?$duration@_JU?$ratio@$00$0DOI@@std@@@chrono@std@@QEAA@AEB_J@Z
	??$?0_J$0A@@?$duration@_JU?$ratio@$00$0PECEA@@std@@@chrono@std@@QEAA@AEB_J@Z
	??$?0_JU?$ratio@$00$00@std@@$0A@@?$duration@_JU?$ratio@$00$0PECEA@@std@@@chrono@std@@QEAA@AEBV?$duration@_JU?$ratio@$00$00@std@@@12@@Z
	??$?4V?$tuple@Vsocket@sockpp@@@std@@Vsocket@sockpp@@$0A@@?$tuple@Vsocket@sockpp@@@std@@QEAAAEAV01@$$QEAV01@@Z
	??$?4V?$tuple@Vsocket@sockpp@@V12@@std@@Vsocket@sockpp@@$0A@@?$tuple@Vsocket@sockpp@@V12@@std@@QEAAAEAV01@$$QEAV01@@Z
	??$?6U?$char_traits@D@std@@@std@@YAAEAV?$basic_ostream@DU?$char_traits@D@std@@@0@AEAV10@PEBD@Z
	??$?9_K@sockpp@@YA_NAEBV?$result@_K@0@AEBW4errc@std@@@Z
	??$?G_JU?$ratio@$00$0PECEA@@std@@_JU?$ratio@$00$00@1@@chrono@std@@YA?AV?$duration@_JU?$ratio@$00$0PECEA@@std@@@01@AEBV201@AEBV?$duration@_JU?$ratio@$00$00@std@@@01@@Z
	??$?HDU?$char_traits@D@std@@V?$allocator@D@1@@std@@YA?AV?$basic_string@DU?$char_traits@D@std@@V?$allocator@D@2@@0@$$QEAV10@0@Z
	??$?HDU?$char_traits@D@std@@V?$allocator@D@1@@std@@YA?AV?$basic_string@DU?$char_traits@D@std@@V?$allocator@D@2@@0@$$QEAV10@QEBD@Z
	??$_Adl_verify_range@PEADPEAD@std@@YAXAEBQEAD0@Z
	??$_Alloc_proxy@V?$allocator@U_Container_proxy@std@@@std@@@_Container_base12@std@@QEAAX$$QEAV?$allocator@U_Container_proxy@std@@@1@@Z
	??$_Allocate@$0BA@U_Default_allocate_traits@std@@@std@@YAPEAX_K@Z
	??$_Allocate_at_least_helper@V?$allocator@D@std@@@std@@YAPEADAEAV?$allocator@D@0@AEA_K@Z
	??$_Allocate_at_least_helper@V?$allocator@U_WSABUF@@@std@@@std@@YAPEAU_WSABUF@@AEAV?$allocator@U_WSABUF@@@0@AEA_K@Z
	??$_Allocate_for_capacity@$0A@@?$basic_string@DU?$char_traits@D@std@@V?$allocator@D@2@@std@@CAPEADAEAV?$allocator@D@1@AEA_K@Z
	??$_Allocate_manually_vector_aligned@U_Default_allocate_traits@std@@@std@@YAPEAX_K@Z
	??$_Allocators_equal@V?$allocator@D@std@@@std@@YA_NAEBV?$allocator@D@0@0@Z
	??$_Bit_cast@_KT_Addr_storage@error_category@std@@$0A@@std@@YA_KAEBT_Addr_storage@error_category@0@@Z
	??$_Construct@$00PEAD@?$basic_string@DU?$char_traits@D@std@@V?$allocator@D@2@@std@@AEAAXQEAD_K@Z
	??$_Construct@$00PEBD@?$basic_string@DU?$char_traits@D@std@@V?$allocator@D@2@@std@@AEAAXQEBD_K@Z
	??$_Construct_in_place@PEADAEAPEAD@std@@YAXAEAPEAD0@Z
	??$_Construct_in_place@PEADAEBQEAD@std@@YAXAEAPEADAEBQEAD@Z
	??$_Construct_in_place@U_Container_proxy@std@@PEAU_Container_base12@2@@std@@YAXAEAU_Container_proxy@0@$$QEAPEAU_Container_base12@0@@Z
	??$_Construct_in_place@U_WSABUF@@U1@@std@@YAXAEAU_WSABUF@@$$QEAU1@@Z
	??$_Convert_size@_K_K@std@@YA_K_K@Z
	??$_Copy_memmove@PEAU_WSABUF@@PEAU1@@std@@YAPEAU_WSABUF@@PEAU1@00@Z
	??$_Deallocate@$0BA@@std@@YAXPEAX_K@Z
	??$_Deallocate_plain@V?$allocator@U_Container_proxy@std@@@std@@@std@@YAXAEAV?$allocator@U_Container_proxy@std@@@0@QEAU_Container_proxy@0@@Z
	??$_Delete_plain_internal@V?$allocator@U_Container_proxy@std@@@std@@@std@@YAXAEAV?$allocator@U_Container_proxy@std@@@0@QEAU_Container_proxy@0@@Z
	??$_Destroy_in_place@PEAD@std@@YAXAEAPEAD@Z
	??$_Destroy_range@V?$allocator@U_WSABUF@@@std@@@std@@YAXPEAU_WSABUF@@QEAU1@AEAV?$allocator@U_WSABUF@@@0@@Z
	??$_Emplace_back@U_WSABUF@@@?$_Uninitialized_backout_al@V?$allocator@U_WSABUF@@@std@@@std@@QEAAX$$QEAU_WSABUF@@@Z
	??$_Emplace_back_with_unused_capacity@U_WSABUF@@@?$vector@U_WSABUF@@V?$allocator@U_WSABUF@@@std@@@std@@AEAAAEAU_WSABUF@@$$QEAU2@@Z
	??$_Emplace_one_at_back@U_WSABUF@@@?$vector@U_WSABUF@@V?$allocator@U_WSABUF@@@std@@@std@@AEAAAEAU_WSABUF@@$$QEAU2@@Z
	??$_Emplace_reallocate@U_WSABUF@@@?$vector@U_WSABUF@@V?$allocator@U_WSABUF@@@std@@@std@@AEAAPEAU_WSABUF@@QEAU2@$$QEAU2@@Z
	??$_Get_size_of_n@$00@std@@YA_K_K@Z
	??$_Get_size_of_n@$0BA@@std@@YA_K_K@Z
	??$_Get_unwrapped@AEAPEAD@std@@YA?A_TAEAPEAD@Z
	??$_Get_unwrapped@AEBQEAU_WSABUF@@@std@@YA?A_TAEBQEAU_WSABUF@@@Z
	??$_Immortalize_memcpy_image@V_Generic_error_category@std@@@std@@YAAEBV_Generic_error_category@0@XZ
	??$_Immortalize_memcpy_image@V_System_error_category@std@@@std@@YAAEBV_System_error_category@0@XZ
	??$_Max_limit@_J@std@@YA_JXZ
	??$_Reallocate_grow_by@V<lambda_65e615be2a453ca0576c979606f46740>@@PEBD_K@?$basic_string@DU?$char_traits@D@std@@V?$allocator@D@2@@std@@AEAAAEAV01@_KV<lambda_65e615be2a453ca0576c979606f46740>@@PEBD_K@Z
	??$_To_address@PEAU_WSABUF@@@std@@YA?A_PAEBQEAU_WSABUF@@@Z
	??$_UIntegral_to_buff@DI@std@@YAPEADPEADI@Z
	??$_UIntegral_to_string@DI@std@@YA?AV?$basic_string@DU?$char_traits@D@std@@V?$allocator@D@2@@0@I@Z
	??$_Unfancy@D@std@@YAPEADPEAD@Z
	??$_Unfancy@U_Container_proxy@std@@@std@@YAPEAU_Container_proxy@0@PEAU10@@Z
	??$_Unfancy@U_WSABUF@@@std@@YAPEAU_WSABUF@@PEAU1@@Z
	??$_Unfancy_maybe_null@U_WSABUF@@@std@@YAPEAU_WSABUF@@PEAU1@@Z
	??$_Unfancy_maybe_null@Uiovec@@@std@@YAPEAUiovec@@PEAU1@@Z
	??$_Uninitialized_move@PEAU_WSABUF@@V?$allocator@U_WSABUF@@@std@@@std@@YAPEAU_WSABUF@@QEAU1@0PEAU1@AEAV?$allocator@U_WSABUF@@@0@@Z
	??$addressof@PEAD@std@@YAPEAPEADAEAPEAD@Z
	??$addressof@U_Container_base12@std@@@std@@YAPEAU_Container_base12@0@AEAU10@@Z
	??$addressof@U_Container_proxy@std@@@std@@YAPEAU_Container_proxy@0@AEAU10@@Z
	??$addressof@U_WSABUF@@@std@@YAPEAU_WSABUF@@AEAU1@@Z
	??$addressof@V?$_String_val@U?$_Simple_types@D@std@@@std@@@std@@YAPEAV?$_String_val@U?$_Simple_types@D@std@@@0@AEAV10@@Z
	??$addressof@V?$basic_ostream@DU?$char_traits@D@std@@@std@@@std@@YAPEAV?$basic_ostream@DU?$char_traits@D@std@@@0@AEAV10@@Z
	??$addressof@V?$basic_string@DU?$char_traits@D@std@@V?$allocator@D@2@@std@@@std@@YAPEAV?$basic_string@DU?$char_traits@D@std@@V?$allocator@D@2@@0@AEAV10@@Z
	??$check_res@HH@socket@sockpp@@KA?AV?$result@H@1@H@Z
	??$check_res@_J_K@socket@sockpp@@KA?AV?$result@_K@1@_J@Z
	??$check_res_none@H@socket@sockpp@@KA?AV?$result@Unone@sockpp@@@1@H@Z
	??$construct@U_WSABUF@@U1@@?$_Default_allocator_traits@V?$allocator@U_WSABUF@@@std@@@std@@SAXAEAV?$allocator@U_WSABUF@@@1@QEAU_WSABUF@@$$QEAU3@@Z
	??$duration_cast@V?$duration@_JU?$ratio@$00$00@std@@@chrono@std@@_JU?$ratio@$00$0PECEA@@3@$0A@@chrono@std@@YA?AV?$duration@_JU?$ratio@$00$00@std@@@01@AEBV?$duration@_JU?$ratio@$00$0PECEA@@std@@@01@@Z
	??$duration_cast@V?$duration@_JU?$ratio@$00$0DOI@@std@@@chrono@std@@_JU?$ratio@$00$0PECEA@@3@$0A@@chrono@std@@YA?AV?$duration@_JU?$ratio@$00$0DOI@@std@@@01@AEBV?$duration@_JU?$ratio@$00$0PECEA@@std@@@01@@Z
	??$duration_cast@V?$duration@_JU?$ratio@$00$0PECEA@@std@@@chrono@std@@_JU?$ratio@$00$00@3@$0A@@chrono@std@@YA?AV?$duration@_JU?$ratio@$00$0PECEA@@std@@@01@AEBV?$duration@_JU?$ratio@$00$00@std@@@01@@Z
	??$duration_cast@V?$duration@_JU?$ratio@$00$0PECEA@@std@@@chrono@std@@_JU?$ratio@$00$0PECEA@@3@$0A@@chrono@std@@YA?AV?$duration@_JU?$ratio@$00$0PECEA@@std@@@01@AEBV201@@Z
	??$end@D$0BF@@std@@YAPEADAEAY0BF@D@Z
	??$exchange@PEAU_Container_proxy@std@@$$T@std@@YAPEAU_Container_proxy@0@AEAPEAU10@$$QEA$$T@Z
	??$exchange@PEAU_Iterator_base12@std@@$$T@std@@YAPEAU_Iterator_base12@0@AEAPEAU10@$$QEA$$T@Z
	??$forward@AEAPEAD@std@@YAAEAPEADAEAPEAD@Z
	??$forward@AEAV?$allocator@D@std@@@std@@YAAEAV?$allocator@D@0@AEAV10@@Z
	??$forward@AEBQEAD@std@@YAAEBQEADAEBQEAD@Z
	??$forward@AEBV?$allocator@D@std@@@std@@YAAEBV?$allocator@D@0@AEBV10@@Z
	??$forward@PEAU_Container_base12@std@@@std@@YA$$QEAPEAU_Container_base12@0@AEAPEAU10@@Z
	??$forward@U_WSABUF@@@std@@YA$$QEAU_WSABUF@@AEAU1@@Z
	??$forward@V?$allocator@D@std@@@std@@YA$$QEAV?$allocator@D@0@AEAV10@@Z
	??$forward@V?$tuple@$$V@std@@@std@@YA$$QEAV?$tuple@$$V@0@AEAV10@@Z
	??$forward@V?$tuple@Vsocket@sockpp@@@std@@@std@@YA$$QEAV?$tuple@Vsocket@sockpp@@@0@AEAV10@@Z
	??$forward@Vsocket@sockpp@@@std@@YA$$QEAVsocket@sockpp@@AEAV12@@Z
	??$get_option@H@socket@sockpp@@QEBA?AV?$result@Unone@sockpp@@@1@HHPEAH@Z
	??$max@_K@std@@YAAEB_KAEB_K0@Z
	??$min@_K@std@@YAAEB_KAEB_K0@Z
	??$move@AEAH@std@@YA$$QEAHAEAH@Z
	??$move@AEAI@std@@YA$$QEAIAEAI@Z
	??$move@AEAU_WSABUF@@@std@@YA$$QEAU_WSABUF@@AEAU1@@Z
	??$move@AEAUin6_addr@@@std@@YA$$QEAUin6_addr@@AEAU1@@Z
	??$move@AEAUnone@sockpp@@@std@@YA$$QEAUnone@sockpp@@AEAU12@@Z
	??$move@AEAV?$allocator@D@std@@@std@@YA$$QEAV?$allocator@D@0@AEAV10@@Z
	??$move@AEAV?$basic_string@DU?$char_traits@D@std@@V?$allocator@D@2@@std@@@std@@YA$$QEAV?$basic_string@DU?$char_traits@D@std@@V?$allocator@D@2@@0@AEAV10@@Z
	??$move@AEAVacceptor@sockpp@@@std@@YA$$QEAVacceptor@sockpp@@AEAV12@@Z
	??$move@AEAVerror_code@std@@@std@@YA$$QEAVerror_code@0@AEAV10@@Z
	??$move@AEAVinet6_address@sockpp@@@std@@YA$$QEAVinet6_address@sockpp@@AEAV12@@Z
	??$move@AEAVinet_address@sockpp@@@std@@YA$$QEAVinet_address@sockpp@@AEAV12@@Z
	??$move@AEAVsocket@sockpp@@@std@@YA$$QEAVsocket@sockpp@@AEAV12@@Z
	??$move@AEAVstream_socket@sockpp@@@std@@YA$$QEAVstream_socket@sockpp@@AEAV12@@Z
	??$move@AEA_K@std@@YA$$QEA_KAEA_K@Z
	??$set_option@H@socket@sockpp@@QEAA?AV?$result@Unone@sockpp@@@1@HHAEBH@Z
	??$set_option@K@socket@sockpp@@QEAA?AV?$result@Unone@sockpp@@@1@HHAEBK@Z
	??$swap@_K$0A@@std@@YAXAEA_K0@Z
	??0?$_Container_proxy_ptr12@V?$allocator@U_Container_proxy@std@@@std@@@std@@QEAA@AEAV?$allocator@U_Container_proxy@std@@@1@AEAU_Container_base12@1@@Z
	??0?$_String_val@U?$_Simple_types@D@std@@@std@@QEAA@XZ
	??0?$_Tuple_val@Vsocket@sockpp@@@std@@QEAA@$$QEAU01@@Z
	??0?$_Tuple_val@Vsocket@sockpp@@@std@@QEAA@XZ
	??0?$_Uninitialized_backout_al@V?$allocator@U_WSABUF@@@std@@@std@@QEAA@PEAU_WSABUF@@AEAV?$allocator@U_WSABUF@@@1@@Z
	??0?$_Vector_val@U?$_Simple_types@U_WSABUF@@@std@@@std@@QEAA@XZ
	??0?$allocator@D@std@@QEAA@XZ
	??0?$allocator@U_WSABUF@@@std@@QEAA@XZ
	??0?$basic_string@DU?$char_traits@D@std@@V?$allocator@D@2@@std@@QEAA@$$QEAV01@@Z
	??0?$basic_string@DU?$char_traits@D@std@@V?$allocator@D@2@@std@@QEAA@QEBD@Z
	??0?$basic_string@DU?$char_traits@D@std@@V?$allocator@D@2@@std@@QEAA@QEBD_K@Z
	??0?$basic_string@DU?$char_traits@D@std@@V?$allocator@D@2@@std@@QEAA@U_String_constructor_concat_tag@1@AEAV01@1@Z
	??0?$result@H@sockpp@@AEAA@$$QEAHAEBVerror_code@std@@@Z
	??0?$result@H@sockpp@@QEAA@$$QEAVerror_code@std@@@Z
	??0?$result@H@sockpp@@QEAA@AEBH@Z
	??0?$result@H@sockpp@@QEAA@W4errc@std@@@Z
	??0?$result@H@sockpp@@QEAA@XZ
	??0?$result@I@sockpp@@QEAA@$$QEAI@Z
	??0?$result@I@sockpp@@QEAA@$$QEAVerror_code@std@@@Z
	??0?$result@Uin6_addr@@@sockpp@@QEAA@$$QEAUin6_addr@@@Z
	??0?$result@Uin6_addr@@@sockpp@@QEAA@$$QEAVerror_code@std@@@Z
	??0?$result@Unone@sockpp@@@sockpp@@QEAA@$$QEAUnone@1@@Z
	??0?$result@Unone@sockpp@@@sockpp@@QEAA@$$QEAVerror_code@std@@@Z
	??0?$result@Unone@sockpp@@@sockpp@@QEAA@AEBVerror_code@std@@@Z
	??0?$result@Unone@sockpp@@@sockpp@@QEAA@W4errc@std@@@Z
	??0?$result@V?$tuple@Vsocket@sockpp@@V12@@std@@@sockpp@@QEAA@$$QEAV01@@Z
	??0?$result@V?$tuple@Vsocket@sockpp@@V12@@std@@@sockpp@@QEAA@W4errc@std@@@Z
	??0?$result@V?$tuple@Vsocket@sockpp@@V12@@std@@@sockpp@@QEAA@XZ
	??0?$result@Vacceptor@sockpp@@@sockpp@@QEAA@$$QEAVacceptor@1@@Z
	??0?$result@Vacceptor@sockpp@@@sockpp@@QEAA@AEBVerror_code@std@@@Z
	??0?$result@Vinet6_address@sockpp@@@sockpp@@QEAA@$$QEAVinet6_address@1@@Z
	??0?$result@Vinet6_address@sockpp@@@sockpp@@QEAA@AEBVerror_code@std@@@Z
	??0?$result@Vinet_address@sockpp@@@sockpp@@QEAA@$$QEAVinet_address@1@@Z
	??0?$result@Vinet_address@sockpp@@@sockpp@@QEAA@AEBVerror_code@std@@@Z
	??0?$result@Vsocket@sockpp@@@sockpp@@QEAA@$$QEAVsocket@1@@Z
	??0?$result@Vsocket@sockpp@@@sockpp@@QEAA@AEBVerror_code@std@@@Z
	??0?$result@Vstream_socket@sockpp@@@sockpp@@QEAA@$$QEAVstream_socket@1@@Z
	??0?$result@Vstream_socket@sockpp@@@sockpp@@QEAA@AEBVerror_code@std@@@Z
	??0?$result@_K@sockpp@@QEAA@$$QEAVerror_code@std@@@Z
	??0?$result@_K@sockpp@@QEAA@$$QEA_K@Z
	??0?$result@_K@sockpp@@QEAA@AEBVerror_code@std@@@Z
	??0?$result@_K@sockpp@@QEAA@AEB_K@Z
	??0?$tuple@$$V@std@@QEAA@AEBV01@@Z
	??0?$tuple@Vsocket@sockpp@@@std@@QEAA@$$QEAV01@@Z
	??0?$tuple@Vsocket@sockpp@@V12@@std@@QEAA@$$QEAV01@@Z
	??0?$vector@U_WSABUF@@V?$allocator@U_WSABUF@@@std@@@std@@QEAA@XZ
	??0_Basic_container_proxy_ptr12@std@@IEAA@XZ
	??0_Bxty@?$_String_val@U?$_Simple_types@D@std@@@std@@QEAA@XZ
	??0_Container_base12@std@@QEAA@XZ
	??0_Container_proxy@std@@QEAA@PEAU_Container_base12@1@@Z
	??0_Sentry_base@?$basic_ostream@DU?$char_traits@D@std@@@std@@QEAA@AEAV12@@Z
	??0_System_error@std@@IEAA@Verror_code@1@@Z
	??0_System_error@std@@QEAA@AEBV01@@Z
	??0_System_error_message@std@@QEAA@K@Z
	??0acceptor@sockpp@@QEAA@$$QEAV01@@Z
	??0acceptor@sockpp@@QEAA@XZ
	??0acceptor@sockpp@@QEAA@_K@Z
	??0bad_alloc@std@@AEAA@QEBD@Z
	??0bad_alloc@std@@QEAA@AEBV01@@Z
	??0bad_array_new_length@std@@QEAA@AEBV01@@Z
	??0bad_array_new_length@std@@QEAA@XZ
	??0error_code@std@@QEAA@HAEBVerror_category@1@@Z
	??0error_code@std@@QEAA@XZ
	??0error_condition@std@@QEAA@HAEBVerror_category@1@@Z
	??0exception@std@@QEAA@AEBV01@@Z
	??0exception@std@@QEAA@QEBD@Z
	??0exception@std@@QEAA@QEBDH@Z
	??0inet6_address@sockpp@@QEAA@AEBUin6_addr@@G@Z
	??0inet6_address@sockpp@@QEAA@AEBUsockaddr_in6@@@Z
	??0inet6_address@sockpp@@QEAA@AEBV01@@Z
	??0inet6_address@sockpp@@QEAA@AEBV?$basic_string@DU?$char_traits@D@std@@V?$allocator@D@2@@std@@G@Z
	??0inet6_address@sockpp@@QEAA@AEBV?$basic_string@DU?$char_traits@D@std@@V?$allocator@D@2@@std@@GAEAVerror_code@3@@Z
	??0inet6_address@sockpp@@QEAA@XZ
	??0inet_address@sockpp@@QEAA@AEBUsockaddr_in@@@Z
	??0inet_address@sockpp@@QEAA@AEBV01@@Z
	??0inet_address@sockpp@@QEAA@AEBV?$basic_string@DU?$char_traits@D@std@@V?$allocator@D@2@@std@@G@Z
	??0inet_address@sockpp@@QEAA@AEBV?$basic_string@DU?$char_traits@D@std@@V?$allocator@D@2@@std@@GAEAVerror_code@3@@Z
	??0inet_address@sockpp@@QEAA@IG@Z
	??0inet_address@sockpp@@QEAA@XZ
	??0length_error@std@@QEAA@AEBV01@@Z
	??0length_error@std@@QEAA@PEBD@Z
	??0logic_error@std@@QEAA@AEBV01@@Z
	??0logic_error@std@@QEAA@PEBD@Z
	??0runtime_error@std@@QEAA@AEBV01@@Z
	??0runtime_error@std@@QEAA@AEBV?$basic_string@DU?$char_traits@D@std@@V?$allocator@D@2@@1@@Z
	??0sentry@?$basic_ostream@DU?$char_traits@D@std@@@std@@QEAA@AEAV12@@Z
	??0sock_address@sockpp@@QEAA@XZ
	??0sock_address_any@sockpp@@QEAA@AEBUsockaddr_storage@@H@Z
	??0sock_address_any@sockpp@@QEAA@XZ
	??0socket@sockpp@@QEAA@$$QEAV01@@Z
	??0socket@sockpp@@QEAA@XZ
	??0socket@sockpp@@QEAA@_K@Z
	??0socket_initializer@sockpp@@AEAA@XZ
	??0stream_socket@sockpp@@QEAA@$$QEAV01@@Z
	??0stream_socket@sockpp@@QEAA@XZ
	??0stream_socket@sockpp@@QEAA@_K@Z
	??0system_error@std@@QEAA@AEBV01@@Z
	??0system_error@std@@QEAA@Verror_code@1@@Z
	??1?$_Compressed_pair@V?$allocator@D@std@@V?$_String_val@U?$_Simple_types@D@std@@@2@$00@std@@QEAA@XZ
	??1?$_Container_proxy_ptr12@V?$allocator@U_Container_proxy@std@@@std@@@std@@QEAA@XZ
	??1?$_String_val@U?$_Simple_types@D@std@@@std@@QEAA@XZ
	??1?$_Tuple_val@Vsocket@sockpp@@@std@@QEAA@XZ
	??1?$_Uninitialized_backout_al@V?$allocator@U_WSABUF@@@std@@@std@@QEAA@XZ
	??1?$basic_string@DU?$char_traits@D@std@@V?$allocator@D@2@@std@@QEAA@XZ
	??1?$result@V?$tuple@Vsocket@sockpp@@V12@@std@@@sockpp@@QEAA@XZ
	??1?$result@Vinet6_address@sockpp@@@sockpp@@QEAA@XZ
	??1?$result@Vinet_address@sockpp@@@sockpp@@QEAA@XZ
	??1?$tuple@Vsocket@sockpp@@@std@@QEAA@XZ
	??1?$tuple@Vsocket@sockpp@@V12@@std@@QEAA@XZ
	??1?$vector@U_WSABUF@@V?$allocator@U_WSABUF@@@std@@@std@@QEAA@XZ
	??1_Bxty@?$_String_val@U?$_Simple_types@D@std@@@std@@QEAA@XZ
	??1_Generic_error_category@std@@UEAA@XZ
	??1_Sentry_base@?$basic_ostream@DU?$char_traits@D@std@@@std@@QEAA@XZ
	??1_System_error@std@@UEAA@XZ
	??1_System_error_category@std@@UEAA@XZ
	??1_System_error_message@std@@QEAA@XZ
	??1acceptor@sockpp@@UEAA@XZ
	??1bad_alloc@std@@UEAA@XZ
	??1bad_array_new_length@std@@UEAA@XZ
	??1error_category@std@@UEAA@XZ
	??1exception@std@@UEAA@XZ
	??1inet6_address@sockpp@@UEAA@XZ
	??1inet_address@sockpp@@UEAA@XZ
	??1length_error@std@@UEAA@XZ
	??1logic_error@std@@UEAA@XZ
	??1runtime_error@std@@UEAA@XZ
	??1sentry@?$basic_ostream@DU?$char_traits@D@std@@@std@@QEAA@XZ
	??1sock_address@sockpp@@UEAA@XZ
	??1sock_address_any@sockpp@@UEAA@XZ
	??1socket@sockpp@@UEAA@XZ
	??1socket_initializer@sockpp@@QEAA@XZ
	??1stream_socket@sockpp@@UEAA@XZ
	??1system_error@std@@UEAA@XZ
	??2@YAPEAX_KPEAX@Z
	??4?$result@V?$tuple@Vsocket@sockpp@@V12@@std@@@sockpp@@QEAAAEAV01@$$QEAV01@@Z
	??4socket@sockpp@@QEAAAEAV01@$$QEAV01@@Z
	??6sockpp@@YAAEAV?$basic_ostream@DU?$char_traits@D@std@@@std@@AEAV12@AEBVinet6_address@0@@Z
	??6sockpp@@YAAEAV?$basic_ostream@DU?$char_traits@D@std@@@std@@AEAV12@AEBVinet_address@0@@Z
	??8error_category@std@@QEBA_NAEBV01@@Z
	??8std@@YA_NAEBVerror_code@0@AEBVerror_condition@0@@Z
	??8std@@YA_NAEBVerror_condition@0@0@Z
	??9std@@YA_NAEBVerror_code@0@AEBVerror_condition@0@@Z
	??B?$result@H@sockpp@@QEBA_NXZ
	??B?$result@I@sockpp@@QEBA_NXZ
	??B?$result@Uin6_addr@@@sockpp@@QEBA_NXZ
	??B?$result@Unone@sockpp@@@sockpp@@QEBA_NXZ
	??B?$result@Vinet6_address@sockpp@@@sockpp@@QEBA_NXZ
	??B?$result@Vinet_address@sockpp@@@sockpp@@QEBA_NXZ
	??B?$result@_K@sockpp@@QEBA_NXZ
	??Berror_code@std@@QEBA_NXZ
	??Bsentry@?$basic_ostream@DU?$char_traits@D@std@@@std@@QEBA_NXZ
	??Bsock_address@sockpp@@UEBA_NXZ
	??R<lambda_65e615be2a453ca0576c979606f46740>@@QEBA@QEADQEBD_K12@Z
	??_7_Generic_error_category@std@@6B@
	??_7_System_error@std@@6B@
	??_7_System_error_category@std@@6B@
	??_7acceptor@sockpp@@6B@
	??_7bad_alloc@std@@6B@
	??_7bad_array_new_length@std@@6B@
	??_7exception@std@@6B@
	??_7inet6_address@sockpp@@6B@
	??_7inet_address@sockpp@@6B@
	??_7length_error@std@@6B@
	??_7logic_error@std@@6B@
	??_7runtime_error@std@@6B@
	??_7sock_address@sockpp@@6B@
	??_7sock_address_any@sockpp@@6B@
	??_7socket@sockpp@@6B@
	??_7stream_socket@sockpp@@6B@
	??_7system_error@std@@6B@
	??__Fsock_init@?1??initialize@socket_initializer@sockpp@@SAXXZ@YAXXZ
	?_Activate_SSO_buffer@?$_String_val@U?$_Simple_types@D@std@@@std@@QEAAXXZ
	?_Adjust_manually_vector_aligned@std@@YAXAEAPEAXAEA_K@Z
	?_Allocate@_Default_allocate_traits@std@@SAPEAX_K@Z
	?_Calculate_growth@?$basic_string@DU?$char_traits@D@std@@V?$allocator@D@2@@std@@AEBA_K_K@Z
	?_Calculate_growth@?$basic_string@DU?$char_traits@D@std@@V?$allocator@D@2@@std@@CA_K_K00@Z
	?_Calculate_growth@?$vector@U_WSABUF@@V?$allocator@U_WSABUF@@@std@@@std@@AEBA_K_K@Z
	?_Change_array@?$vector@U_WSABUF@@V?$allocator@U_WSABUF@@@std@@@std@@AEAAXQEAU_WSABUF@@_K1@Z
	?_Construct_empty@?$basic_string@DU?$char_traits@D@std@@V?$allocator@D@2@@std@@AEAAXXZ
	?_Deallocate_for_capacity@?$basic_string@DU?$char_traits@D@std@@V?$allocator@D@2@@std@@CAXAEAV?$allocator@D@2@QEAD_K@Z
	?_Get_first@?$_Compressed_pair@V?$allocator@D@std@@V?$_String_val@U?$_Simple_types@D@std@@@2@$00@std@@QEAAAEAV?$allocator@D@2@XZ
	?_Get_first@?$_Compressed_pair@V?$allocator@D@std@@V?$_String_val@U?$_Simple_types@D@std@@@2@$00@std@@QEBAAEBV?$allocator@D@2@XZ
	?_Get_first@?$_Compressed_pair@V?$allocator@U_WSABUF@@@std@@V?$_Vector_val@U?$_Simple_types@U_WSABUF@@@std@@@2@$00@std@@QEAAAEAV?$allocator@U_WSABUF@@@2@XZ
	?_Get_first@?$_Compressed_pair@V?$allocator@U_WSABUF@@@std@@V?$_Vector_val@U?$_Simple_types@U_WSABUF@@@std@@@2@$00@std@@QEBAAEBV?$allocator@U_WSABUF@@@2@XZ
	?_Get_rest@?$tuple@Vsocket@sockpp@@@std@@QEAAAEAV?$tuple@$$V@2@XZ
	?_Get_rest@?$tuple@Vsocket@sockpp@@V12@@std@@QEAAAEAV?$tuple@Vsocket@sockpp@@@2@XZ
	?_Getal@?$basic_string@DU?$char_traits@D@std@@V?$allocator@D@2@@std@@AEAAAEAV?$allocator@D@2@XZ
	?_Getal@?$basic_string@DU?$char_traits@D@std@@V?$allocator@D@2@@std@@AEBAAEBV?$allocator@D@2@XZ
	?_Getal@?$vector@U_WSABUF@@V?$allocator@U_WSABUF@@@std@@@std@@AEAAAEAV?$allocator@U_WSABUF@@@2@XZ
	?_Getal@?$vector@U_WSABUF@@V?$allocator@U_WSABUF@@@std@@@std@@AEBAAEBV?$allocator@U_WSABUF@@@2@XZ
	?_Large_mode_engaged@?$_String_val@U?$_Simple_types@D@std@@@std@@QEBA_NXZ
	?_Myptr@?$_String_val@U?$_Simple_types@D@std@@@std@@QEAAPEADXZ
	?_Myptr@?$_String_val@U?$_Simple_types@D@std@@@std@@QEBAPEBDXZ
	?_Orphan_all@_Container_base12@std@@QEAAXXZ
	?_Orphan_all_locked_v3@_Container_base12@std@@AEAAXXZ
	?_Orphan_all_unlocked_v3@_Container_base12@std@@AEAAXXZ
	?_Orphan_range@?$vector@U_WSABUF@@V?$allocator@U_WSABUF@@@std@@@std@@AEBAXPEAU_WSABUF@@0@Z
	?_Orphan_range_locked@?$vector@U_WSABUF@@V?$allocator@U_WSABUF@@@std@@@std@@AEBAXPEAU_WSABUF@@0@Z
	?_Orphan_range_unlocked@?$vector@U_WSABUF@@V?$allocator@U_WSABUF@@@std@@@std@@AEBAXPEAU_WSABUF@@0@Z
	?_Release@?$_Uninitialized_backout_al@V?$allocator@U_WSABUF@@@std@@@std@@QEAAPEAU_WSABUF@@XZ
	?_Release@_Basic_container_proxy_ptr12@std@@QEAAXXZ
	?_Swap_proxy_and_iterators@?$basic_string@DU?$char_traits@D@std@@V?$allocator@D@2@@std@@AEAAXAEAV12@@Z
	?_Swap_proxy_and_iterators@_Container_base12@std@@QEAAXAEAU12@@Z
	?_Swap_proxy_and_iterators_locked@_Container_base12@std@@AEAAXAEAU12@@Z
	?_Swap_proxy_and_iterators_unlocked@_Container_base12@std@@AEAAXAEAU12@@Z
	?_Switch_to_buf@_Bxty@?$_String_val@U?$_Simple_types@D@std@@@std@@QEAAXXZ
	?_System_error_equal@std@@YA_NAEBVerror_code@1@AEBVerror_condition@1@@Z
	?_Take_contents@?$basic_string@DU?$char_traits@D@std@@V?$allocator@D@2@@std@@AEAAXAEAV12@@Z
	?_Throw_bad_array_new_length@std@@YAXXZ
	?_Tidy@?$vector@U_WSABUF@@V?$allocator@U_WSABUF@@@std@@@std@@AEAAXXZ
	?_Tidy_deallocate@?$basic_string@DU?$char_traits@D@std@@V?$allocator@D@2@@std@@AEAAXXZ
	?_Unchecked_begin@?$vector@Uiovec@@V?$allocator@Uiovec@@@std@@@std@@QEBAPEBUiovec@@XZ
	?_Unchecked_end@?$vector@Uiovec@@V?$allocator@Uiovec@@@std@@@std@@QEBAPEBUiovec@@XZ
	?_Xlen_string@std@@YAXXZ
	?_Xlength@?$vector@U_WSABUF@@V?$allocator@U_WSABUF@@@std@@@std@@CAXXZ
	?__empty_global_delete@@YAXPEAX@Z
	?__empty_global_delete@@YAXPEAXW4align_val_t@std@@@Z
	?__empty_global_delete@@YAXPEAX_K@Z
	?__empty_global_delete@@YAXPEAX_KW4align_val_t@std@@@Z
	?accept@acceptor@sockpp@@QEAA?AV?$result@Vstream_socket@sockpp@@@2@PEAVsock_address@2@@Z
	?address@socket@sockpp@@QEBA?AVsock_address_any@2@XZ
	?allocate@?$allocator@D@std@@QEAAPEAD_K@Z
	?allocate@?$allocator@U_Container_proxy@std@@@std@@QEAAPEAU_Container_proxy@2@_K@Z
	?allocate@?$allocator@U_WSABUF@@@std@@QEAAPEAU_WSABUF@@_K@Z
	?append@?$basic_string@DU?$char_traits@D@std@@V?$allocator@D@2@@std@@QEAAAEAV12@QEBD@Z
	?append@?$basic_string@DU?$char_traits@D@std@@V?$allocator@D@2@@std@@QEAAAEAV12@QEBD_K@Z
	?assign@?$_Narrow_char_traits@DH@std@@SAXAEADAEBD@Z
	?bind@socket@sockpp@@QEAA?AV?$result@Unone@sockpp@@@2@AEBVsock_address@2@H@Z
	?c_str@?$basic_string@DU?$char_traits@D@std@@V?$allocator@D@2@@std@@QEBAPEBDXZ
	?capacity@?$vector@U_WSABUF@@V?$allocator@U_WSABUF@@@std@@@std@@QEBA_KXZ
	?category@error_code@std@@QEBAAEBVerror_category@2@XZ
	?category@error_condition@std@@QEBAAEBVerror_category@2@XZ
	?check_socket@socket@sockpp@@KA?AV?$result@_K@2@_K@Z
	?clone@socket@sockpp@@QEBA?AV?$result@Vsocket@sockpp@@@2@XZ
	?close@socket@sockpp@@AEAA?AV?$result@Unone@sockpp@@@2@_K@Z
	?close@socket@sockpp@@UEAA?AV?$result@Unone@sockpp@@@2@XZ
	?connect@connector@sockpp@@QEAA?AV?$result@Unone@sockpp@@@2@AEBVsock_address@2@@Z
	?connect@connector@sockpp@@QEAA?AV?$result@Unone@sockpp@@@2@AEBVsock_address@2@V?$duration@_JU?$ratio@$00$0PECEA@@std@@@chrono@std@@@Z
	?copy@?$_Char_traits@DH@std@@SAPEADQEADQEBD_K@Z
	?count@?$duration@_JU?$ratio@$00$00@std@@@chrono@std@@QEBA_JXZ
	?count@?$duration@_JU?$ratio@$00$0DOI@@std@@@chrono@std@@QEBA_JXZ
	?count@?$duration@_JU?$ratio@$00$0PECEA@@std@@@chrono@std@@QEBA_JXZ
	?create@acceptor@sockpp@@SA?AV?$result@Vacceptor@sockpp@@@2@H@Z
	?create@inet6_address@sockpp@@SA?AV?$result@Vinet6_address@sockpp@@@2@AEBV?$basic_string@DU?$char_traits@D@std@@V?$allocator@D@2@@std@@G@Z
	?create@inet_address@sockpp@@SA?AV?$result@Vinet_address@sockpp@@@2@AEBV?$basic_string@DU?$char_traits@D@std@@V?$allocator@D@2@@std@@G@Z
	?create@socket@sockpp@@SA?AV?$result@Vsocket@sockpp@@@2@HHH@Z
	?create@stream_socket@sockpp@@SA?AV?$result@Vstream_socket@sockpp@@@2@HH@Z
	?create_handle@acceptor@sockpp@@KA?AV?$result@_K@2@H@Z
	?create_handle@datagram_socket@sockpp@@KA?AV?$result@_K@2@HH@Z
	?create_handle@socket@sockpp@@SA?AV?$result@_K@2@HHH@Z
	?create_handle@stream_socket@sockpp@@KA?AV?$result@_K@2@HH@Z
	?data@?$basic_string@DU?$char_traits@D@std@@V?$allocator@D@2@@std@@QEBAPEBDXZ
	?data@?$vector@U_WSABUF@@V?$allocator@U_WSABUF@@@std@@@std@@QEAAPEAU_WSABUF@@XZ
	?deallocate@?$_Default_allocator_traits@V?$allocator@U_Container_proxy@std@@@std@@@std@@SAXAEAV?$allocator@U_Container_proxy@std@@@2@QEAU_Container_proxy@2@_K@Z
	?deallocate@?$allocator@D@std@@QEAAXQEAD_K@Z
	?deallocate@?$allocator@U_WSABUF@@@std@@QEAAXQEAU_WSABUF@@_K@Z
	?default_error_condition@_System_error_category@std@@UEBA?AVerror_condition@2@H@Z
	?default_error_condition@error_category@std@@UEBA?AVerror_condition@2@H@Z
	?empty@?$vector@Uiovec@@V?$allocator@Uiovec@@@std@@@std@@QEBA_NXZ
	?eof@?$_Narrow_char_traits@DH@std@@SAHXZ
	?eq_int_type@?$_Narrow_char_traits@DH@std@@SA_NHH@Z
	?equivalent@error_category@std@@UEBA_NAEBVerror_code@2@H@Z
	?equivalent@error_category@std@@UEBA_NHAEBVerror_condition@2@@Z
	?error@?$result@H@sockpp@@QEBAAEBVerror_code@std@@XZ
	?error@?$result@I@sockpp@@QEBAAEBVerror_code@std@@XZ
	?error@?$result@Uin6_addr@@@sockpp@@QEBAAEBVerror_code@std@@XZ
	?error@?$result@Vinet6_address@sockpp@@@sockpp@@QEBAAEBVerror_code@std@@XZ
	?error@?$result@Vinet_address@sockpp@@@sockpp@@QEBAAEBVerror_code@std@@XZ
	?error@?$result@_K@sockpp@@QEBAAEBVerror_code@std@@XZ
	?family@sock_address@sockpp@@UEBAGXZ
	?family@socket@sockpp@@UEBAGXZ
	?from_error@?$result@H@sockpp@@SA?AV12@HAEBVerror_category@std@@@Z
	?from_last_error@?$result@H@sockpp@@SA?AV12@XZ
	?from_last_error@?$result@Unone@sockpp@@@sockpp@@SA?AV12@XZ
	?from_last_error@?$result@_K@sockpp@@SA?AV12@XZ
	?generic_category@std@@YAAEBVerror_category@1@XZ
	?get_last_errno@?$result@H@sockpp@@CAHXZ
	?get_last_errno@?$result@Unone@sockpp@@@sockpp@@CAHXZ
	?get_last_errno@?$result@_K@sockpp@@CAHXZ
	?get_option@socket@sockpp@@QEBA?AV?$result@Unone@sockpp@@@2@HHPEAXPEAH@Z
	?handle@socket@sockpp@@QEBA_KXZ
	?initialize@socket_initializer@sockpp@@SAXXZ
	?initialize@sockpp@@YAXXZ
	?is_open@socket@sockpp@@QEBA_NXZ
	?is_set@inet6_address@sockpp@@UEBA_NXZ
	?is_set@inet_address@sockpp@@UEBA_NXZ
	?is_set@sock_address@sockpp@@UEBA_NXZ
	?last_error@?$result@H@sockpp@@SA?AVerror_code@std@@XZ
	?last_error@?$result@Unone@sockpp@@@sockpp@@SA?AVerror_code@std@@XZ
	?last_error@?$result@_K@sockpp@@SA?AVerror_code@std@@XZ
	?length@?$_Narrow_char_traits@DH@std@@SA_KQEBD@Z
	?listen@acceptor@sockpp@@QEAA?AV?$result@Unone@sockpp@@@2@H@Z
	?make_error_code@std@@YA?AVerror_code@1@W4errc@1@@Z
	?make_error_condition@std@@YA?AVerror_condition@1@W4errc@1@@Z
	?max_size@?$_Default_allocator_traits@V?$allocator@D@std@@@std@@SA_KAEBV?$allocator@D@2@@Z
	?max_size@?$_Default_allocator_traits@V?$allocator@U_WSABUF@@@std@@@std@@SA_KAEBV?$allocator@U_WSABUF@@@2@@Z
	?max_size@?$basic_string@DU?$char_traits@D@std@@V?$allocator@D@2@@std@@QEBA_KXZ
	?max_size@?$vector@U_WSABUF@@V?$allocator@U_WSABUF@@@std@@@std@@QEBA_KXZ
	?message@_Generic_error_category@std@@UEBA?AV?$basic_string@DU?$char_traits@D@std@@V?$allocator@D@2@@2@H@Z
	?message@_System_error_category@std@@UEBA?AV?$basic_string@DU?$char_traits@D@std@@V?$allocator@D@2@@2@H@Z
	?message@error_code@std@@QEBA?AV?$basic_string@DU?$char_traits@D@std@@V?$allocator@D@2@@2@XZ
	?move@?$_Char_traits@DH@std@@SAPEADQEADQEBD_K@Z
	?name@_Generic_error_category@std@@UEBAPEBDXZ
	?name@_System_error_category@std@@UEBAPEBDXZ
	?open@acceptor@sockpp@@QEAA?AV?$result@Unone@sockpp@@@2@AEBVsock_address@2@HH@Z
	?open@datagram_socket@sockpp@@QEAA?AV?$result@Unone@sockpp@@@2@AEBVsock_address@2@@Z
	?pair@socket@sockpp@@SA?AV?$result@V?$tuple@Vsocket@sockpp@@V12@@std@@@2@HHH@Z
	?peer_address@socket@sockpp@@QEBA?AVsock_address_any@2@XZ
	?port@inet6_address@sockpp@@QEBAGXZ
	?port@inet_address@sockpp@@QEBAGXZ
	?push_back@?$vector@U_WSABUF@@V?$allocator@U_WSABUF@@@std@@@std@@QEAAX$$QEAU_WSABUF@@@Z
	?read@stream_socket@sockpp@@QEAA?AV?$result@_K@2@AEBV?$vector@Uiovec@@V?$allocator@Uiovec@@@std@@@std@@@Z
	?read@stream_socket@sockpp@@UEAA?AV?$result@_K@2@PEAX_K@Z
	?read_n@stream_socket@sockpp@@UEAA?AV?$result@_K@2@PEAX_K@Z
	?read_timeout@stream_socket@sockpp@@UEAA?AV?$result@Unone@sockpp@@@2@AEBV?$duration@_JU?$ratio@$00$0PECEA@@std@@@chrono@std@@@Z
	?recreate@connector@sockpp@@AEAA?AV?$result@Unone@sockpp@@@2@AEBVsock_address@2@@Z
	?recv_from@socket@sockpp@@QEAA?AV?$result@_K@2@PEAX_KHPEAVsock_address@2@@Z
	?release@socket@sockpp@@QEAA_KXZ
	?reset@socket@sockpp@@QEAAX_K@Z
	?resolve_name@inet6_address@sockpp@@SA?AV?$result@Uin6_addr@@@2@AEBV?$basic_string@DU?$char_traits@D@std@@V?$allocator@D@2@@std@@@Z
	?resolve_name@inet_address@sockpp@@SA?AV?$result@I@2@AEBV?$basic_string@DU?$char_traits@D@std@@V?$allocator@D@2@@std@@@Z
	?set_non_blocking@socket@sockpp@@UEAA?AV?$result@Unone@sockpp@@@2@_N@Z
	?set_option@socket@sockpp@@QEAA?AV?$result@Unone@sockpp@@@2@HHAEB_N@Z
	?set_option@socket@sockpp@@QEAA?AV?$result@Unone@sockpp@@@2@HHPEBXH@Z
	?shutdown@socket@sockpp@@QEAA?AV?$result@Unone@sockpp@@@2@H@Z
	?size@?$basic_string@DU?$char_traits@D@std@@V?$allocator@D@2@@std@@QEBA_KXZ
	?size@?$vector@U_WSABUF@@V?$allocator@U_WSABUF@@@std@@@std@@QEBA_KXZ
	?size@inet6_address@sockpp@@UEBAHXZ
	?size@inet_address@sockpp@@UEBAHXZ
	?size@sock_address_any@sockpp@@UEBAHXZ
	?sockaddr_in6_ptr@inet6_address@sockpp@@QEBAPEBUsockaddr_in6@@XZ
	?sockaddr_in_ptr@inet_address@sockpp@@QEBAPEBUsockaddr_in@@XZ
	?sockaddr_ptr@inet6_address@sockpp@@UEAAPEAUsockaddr@@XZ
	?sockaddr_ptr@inet6_address@sockpp@@UEBAPEBUsockaddr@@XZ
	?sockaddr_ptr@inet_address@sockpp@@UEAAPEAUsockaddr@@XZ
	?sockaddr_ptr@inet_address@sockpp@@UEBAPEBUsockaddr@@XZ
	?sockaddr_ptr@sock_address_any@sockpp@@UEAAPEAUsockaddr@@XZ
	?sockaddr_ptr@sock_address_any@sockpp@@UEBAPEBUsockaddr@@XZ
	?system_category@std@@YAAEBVerror_category@1@XZ
	?to_string@inet6_address@sockpp@@QEBA?AV?$basic_string@DU?$char_traits@D@std@@V?$allocator@D@2@@std@@XZ
	?to_string@inet_address@sockpp@@QEBA?AV?$basic_string@DU?$char_traits@D@std@@V?$allocator@D@2@@std@@XZ
	?to_string@std@@YA?AV?$basic_string@DU?$char_traits@D@std@@V?$allocator@D@2@@1@I@Z
	?to_timeval@sockpp@@YA?AUtimeval@@AEBV?$duration@_JU?$ratio@$00$0PECEA@@std@@@chrono@std@@@Z
	?value@?$result@H@sockpp@@QEBAAEBHXZ
	?value@?$result@I@sockpp@@QEBAAEBIXZ
	?value@?$result@Uin6_addr@@@sockpp@@QEBAAEBUin6_addr@@XZ
	?value@?$result@Vinet6_address@sockpp@@@sockpp@@QEBAAEBVinet6_address@2@XZ
	?value@?$result@Vinet_address@sockpp@@@sockpp@@QEBAAEBVinet_address@2@XZ
	?value@?$result@_K@sockpp@@QEBAAEB_KXZ
	?value@error_code@std@@QEBAHXZ
	?value@error_condition@std@@QEBAHXZ
	?what@exception@std@@UEBAPEBDXZ
	?write@stream_socket@sockpp@@UEAA?AV?$result@_K@2@AEBV?$basic_string@DU?$char_traits@D@std@@V?$allocator@D@2@@std@@@Z
	?write@stream_socket@sockpp@@UEAA?AV?$result@_K@2@AEBV?$vector@Uiovec@@V?$allocator@Uiovec@@@std@@@std@@@Z
	?write@stream_socket@sockpp@@UEAA?AV?$result@_K@2@PEBX_K@Z
	?write_n@stream_socket@sockpp@@UEAA?AV?$result@_K@2@PEBX_K@Z
	?write_timeout@stream_socket@sockpp@@UEAA?AV?$result@Unone@sockpp@@@2@AEBV?$duration@_JU?$ratio@$00$0PECEA@@std@@@chrono@std@@@Z
